Certificate:
    Data:
        Version: 3 (0x2)
        Serial Number: 1 (0x1)
    Signature Algorithm: sha256WithRSAEncryption
        Issuer: C=AU, ST=Some-State, O=Internet Widgits Pty Ltd, CN=testroot
        Validity
            Not Before: Jun 20 02:59:31 2018 GMT
            Not After : Jun 17 02:59:31 2028 GMT
        Subject: C=AU, ST=Some-State, O=Internet Widgits Pty Ltd, CN=testsub
        Subject Public Key Info:
            Public Key Algorithm: rsaEncryption
                Public-Key: (2048 bit)
                Modulus:
                    00:dc:3b:e6:12:63:69:07:52:7a:a5:2e:59:bd:20:
                    37:5a:44:59:98:7a:ac:cf:22:62:49:eb:f0:8a:53:
                    11:e1:90:2e:66:7c:93:5d:b2:a3:d7:79:3c:52:06:
                    0a:6c:aa:dc:43:ae:a7:03:9b:30:97:72:1e:9d:d7:
                    bf:98:ef:da:27:d4:3b:3f:63:ac:48:50:8b:5f:7e:
                    0f:16:d0:55:67:72:5c:55:4a:b2:11:00:5c:07:e5:
                    34:ee:96:91:25:cf:f0:04:20:46:74:53:fc:b9:92:
                    fa:b7:25:5d:24:79:f9:a6:87:d1:ee:ff:a1:9a:a7:
                    67:d4:95:75:8d:05:d0:1b:3a:15:05:60:cc:a5:e2:
                    81:80:2a:1f:73:d1:57:c4:ec:02:c9:13:a0:81:16:
                    d9:55:2b:bc:c4:48:c1:18:fa:01:55:bd:b3:85:1f:
                    fc:12:fa:75:16:96:46:4a:26:0b:44:ff:5f:8a:5a:
                    59:91:19:44:35:f6:d5:f0:83:5a:12:78:2e:c8:a9:
                    fe:36:57:cb:73:bd:a7:a1:68:79:ae:b8:cc:2e:c6:
                    a3:45:f2:e7:50:30:7e:61:b7:1f:6d:a9:7c:dd:cf:
                    4f:c3:b2:24:1d:34:db:1e:b4:0c:c9:27:a6:7b:ef:
                    6a:16:c8:12:71:01:b1:ca:08:30:3f:60:c0:6e:09:
                    a3:d7
                Exponent: 65537 (0x10001)
        X509v3 extensions:
            X509v3 Subject Key Identifier: 
                79:05:2D:F0:B6:15:B8:1D:E5:73:82:AA:DF:D6:8C:75:B9:9A:5D:30
            X509v3 Authority Key Identifier: 
                keyid:2B:3F:FD:36:1B:EE:C4:7A:C3:2B:11:0A:0D:A4:B9:80:74:3A:84:68

            X509v3 Basic Constraints: critical
                CA:TRUE
            X509v3 Key Usage: critical
                Digital Signature, Certificate Sign, CRL Sign
            Netscape Cert Type: 
                SSL Client, S/MIME
    Signature Algorithm: sha256WithRSAEncryption
         ad:c2:96:42:aa:96:11:8c:b4:8b:56:97:f4:04:c8:9d:67:54:
         77:2d:39:5a:85:2c:15:a9:e4:33:73:e7:8e:79:6a:f7:1e:98:
         bc:85:d2:5a:1a:1f:c9:ca:56:e0:18:f5:83:eb:03:ae:ca:bc:
         6d:bc:d3:d0:03:28:f5:cc:2d:86:ef:c7:d0:5b:a3:77:b4:9a:
         87:c3:9d:08:17:11:a4:0f:13:6f:c2:a1:e9:95:b2:ff:b5:ea:
         29:aa:5d:e7:79:3c:39:bc:33:ff:a4:a3:83:7e:0a:bc:68:84:
         65:d1:ea:2c:c5:7f:70:f3:8e:da:e5:eb:83:31:26:cb:d9:28:
         05:06:8d:71:59:78:e5:23:13:2b:a1:bb:98:f1:c1:9d:34:52:
         30:c2:0a:97:32:53:cc:42:56:70:ac:c9:1f:1e:a9:c9:76:80:
         ec:fd:c5:7d:ae:15:c4:a2:15:28:0f:3d:67:81:b9:9d:77:d0:
         d3:07:60:e9:4e:f2:dc:de:d3:41:52:6e:f8:20:73:50:7d:b6:
         72:6d:ae:2d:ab:5a:1b:f7:3d:c3:4e:b7:9f:27:d6:74:7a:45:
         2e:8e:9b:70:f4:da:73:d8:45:8a:60:48:5a:1a:9c:b9:af:d0:
         c6:ea:8f:73:98:7e:b4:94:d0:fb:dd:b0:96:3a:67:f7:e7:98:
         7e:ce:b7:9f
-----BEGIN CERTIFICATE-----
MIIDoDCCAoigAwIBAgIBATANBgkqhkiG9w0BAQsFADBYMQswCQYDVQQGEwJBVTET
MBEGA1UECAwKU29tZS1TdGF0ZTEhMB8GA1UECgwYSW50ZXJuZXQgV2lkZ2l0cyBQ
dHkgTHRkMREwDwYDVQQDDAh0ZXN0cm9vdDAeFw0xODA2MjAwMjU5MzFaFw0yODA2
MTcwMjU5MzFaMFcxCzAJBgNVBAYTAkFVMRMwEQYDVQQIDApTb21lLVN0YXRlMSEw
HwYDVQQKDBhJbnRlcm5ldCBXaWRnaXRzIFB0eSBMdGQxEDAOBgNVBAMMB3Rlc3Rz
dWIwggEiMA0GCSqGSIb3DQEBAQUAA4IBDwAwggEKAoIBAQDcO+YSY2kHUnqlLlm9
IDdaRFmYeqzPImJJ6/CKUxHhkC5mfJNdsqPXeTxSBgpsqtxDrqcDmzCXch6d17+Y
79on1Ds/Y6xIUItffg8W0FVnclxVSrIRAFwH5TTulpElz/AEIEZ0U/y5kvq3JV0k
efmmh9Hu/6Gap2fUlXWNBdAbOhUFYMyl4oGAKh9z0VfE7ALJE6CBFtlVK7zESMEY
+gFVvbOFH/wS+nUWlkZKJgtE/1+KWlmRGUQ19tXwg1oSeC7Iqf42V8tzvaehaHmu
uMwuxqNF8udQMH5htx9tqXzdz0/DsiQdNNsetAzJJ6Z772oWyBJxAbHKCDA/YMBu
CaPXAgMBAAGjdjB0MB0GA1UdDgQWBBR5BS3wthW4HeVzgqrf1ox1uZpdMDAfBgNV
HSMEGDAWgBQrP/02G+7EesMrEQoNpLmAdDqEaDAPBgNVHRMBAf8EBTADAQH/MA4G
A1UdDwEB/wQEAwIBhjARBglghkgBhvhCAQEEBAMCBaAwDQYJKoZIhvcNAQELBQAD
ggEBAK3ClkKqlhGMtItWl/QEyJ1nVHctOVqFLBWp5DNz5455avcemLyF0loaH8nK
VuAY9YPrA67KvG2809ADKPXMLYbvx9Bbo3e0mofDnQgXEaQPE2/CoemVsv+16imq
Xed5PDm8M/+ko4N+CrxohGXR6izFf3Dzjtrl64MxJsvZKAUGjXFZeOUjEyuhu5jx
wZ00UjDCCpcyU8xCVnCsyR8eqcl2gOz9xX2uFcSiFSgPPWeBuZ130NMHYOlO8tze
00FSbvggc1B9tnJtri2rWhv3PcNOt58n1nR6RS6Om3D02nPYRYpgSFoanLmv0Mbq
j3OYfrSU0PvdsJY6Z/fnmH7Ot58=
-----END CERTIFICATE-----
